target datalayout = "e-m:e-p270:32:32-p271:32:32-p272:64:64-i64:64-i128:128-f80:128-n8:16:32:64-S128"
target triple = "x86_64-pc-linux-gnu"

%struct.AVFilterContext = type { ptr, ptr, ptr, ptr, ptr, i32, ptr, ptr, i32, ptr, ptr, i32, i32, ptr, ptr, ptr, ptr, i32, ptr, i32, i32 }
%struct.XFadeContext = type { ptr, i32, i64, i64, ptr, i32, i32, i32, i64, i64, i64, i64, i32, [2 x i32], [2 x ptr], i32, [4 x i16], [4 x i16], ptr, ptr }
%struct.AVRational = type { i32, i32 }
%struct.AVFrame = type { [8 x ptr], [8 x i32], ptr, i32, i32, i32, i32, i32, %struct.AVRational, i64, i64, %struct.AVRational, i32, ptr, i32, i32, [8 x ptr], ptr, i32, ptr, i32, i32, i32, i32, i32, i32, i32, i64, ptr, i32, ptr, ptr, i64, i64, i64, i64, ptr, %struct.AVChannelLayout, i64 }
%struct.AVChannelLayout = type { i32, i32, %union.anon.1, ptr }
%union.anon.1 = type { i64 }

; Function Attrs: nounwind uwtable
define internal void @wipeup16_transition(ptr noundef %0, ptr noundef %1, ptr noundef %2, ptr noundef %3, float noundef %4, i32 noundef %5, i32 noundef %6, i32 noundef %7) #1 {
  %9 = alloca ptr, align 8
  %10 = alloca ptr, align 8
  %11 = alloca ptr, align 8
  %12 = alloca ptr, align 8
  %13 = alloca float, align 4
  %14 = alloca i32, align 4
  %15 = alloca i32, align 4
  %16 = alloca i32, align 4
  %17 = alloca ptr, align 8
  %18 = alloca i32, align 4
  %19 = alloca i32, align 4
  %20 = alloca i32, align 4
  %21 = alloca i32, align 4
  %22 = alloca i32, align 4
  %23 = alloca ptr, align 8
  %24 = alloca ptr, align 8
  %25 = alloca ptr, align 8
  %26 = alloca i32, align 4
  %27 = alloca i32, align 4
  store ptr %0, ptr %9, align 8, !tbaa !4
  store ptr %1, ptr %10, align 8, !tbaa !36
  store ptr %2, ptr %11, align 8, !tbaa !36
  store ptr %3, ptr %12, align 8, !tbaa !36
  store float %4, ptr %13, align 4, !tbaa !90
  store i32 %5, ptr %14, align 4, !tbaa !32
  store i32 %6, ptr %15, align 4, !tbaa !32
  store i32 %7, ptr %16, align 4, !tbaa !32
  call void @llvm.lifetime.start.p0(i64 8, ptr %17) #10
  %28 = load ptr, ptr %9, align 8, !tbaa !4
  %29 = getelementptr inbounds nuw %struct.AVFilterContext, ptr %28, i32 0, i32 9
  %30 = load ptr, ptr %29, align 8, !tbaa !9
  store ptr %30, ptr %17, align 8, !tbaa !22
  call void @llvm.lifetime.start.p0(i64 4, ptr %18) #10
  %31 = load i32, ptr %15, align 4, !tbaa !32
  %32 = load i32, ptr %14, align 4, !tbaa !32
  %33 = sub nsw i32 %31, %32
  store i32 %33, ptr %18, align 4, !tbaa !32
  call void @llvm.lifetime.start.p0(i64 4, ptr %19) #10
  %34 = load ptr, ptr %12, align 8, !tbaa !36
  %35 = getelementptr inbounds nuw %struct.AVFrame, ptr %34, i32 0, i32 3
  %36 = load i32, ptr %35, align 8, !tbaa !92
  store i32 %36, ptr %19, align 4, !tbaa !32
  call void @llvm.lifetime.start.p0(i64 4, ptr %20) #10
  %37 = load ptr, ptr %12, align 8, !tbaa !36
  %38 = getelementptr inbounds nuw %struct.AVFrame, ptr %37, i32 0, i32 4
  %39 = load i32, ptr %38, align 4, !tbaa !95
  %40 = sitofp i32 %39 to float
  %41 = load float, ptr %13, align 4, !tbaa !90
  %42 = fmul nsz float %40, %41
  %43 = fptosi float %42 to i32
  store i32 %43, ptr %20, align 4, !tbaa !32
  call void @llvm.lifetime.start.p0(i64 4, ptr %21) #10
  store i32 0, ptr %21, align 4, !tbaa !32
  br label %44

44:                                               ; preds = %176, %8
  %45 = load i32, ptr %21, align 4, !tbaa !32
  %46 = load ptr, ptr %17, align 8, !tbaa !22
  %47 = getelementptr inbounds nuw %struct.XFadeContext, ptr %46, i32 0, i32 5
  %48 = load i32, ptr %47, align 8, !tbaa !82
  %49 = icmp slt i32 %45, %48
  br i1 %49, label %51, label %50

50:                                               ; preds = %44
  store i32 2, ptr %22, align 4
  call void @llvm.lifetime.end.p0(i64 4, ptr %21) #10
  br label %179

51:                                               ; preds = %44
  call void @llvm.lifetime.start.p0(i64 8, ptr %23) #10
  %52 = load ptr, ptr %10, align 8, !tbaa !36
  %53 = getelementptr inbounds nuw %struct.AVFrame, ptr %52, i32 0, i32 0
  %54 = load i32, ptr %21, align 4, !tbaa !32
  %55 = sext i32 %54 to i64
  %56 = getelementptr inbounds [8 x ptr], ptr %53, i64 0, i64 %55
  %57 = load ptr, ptr %56, align 8, !tbaa !96
  %58 = load i32, ptr %14, align 4, !tbaa !32
  %59 = load ptr, ptr %10, align 8, !tbaa !36
  %60 = getelementptr inbounds nuw %struct.AVFrame, ptr %59, i32 0, i32 1
  %61 = load i32, ptr %21, align 4, !tbaa !32
  %62 = sext i32 %61 to i64
  %63 = getelementptr inbounds [8 x i32], ptr %60, i64 0, i64 %62
  %64 = load i32, ptr %63, align 4, !tbaa !32
  %65 = mul nsw i32 %58, %64
  %66 = sext i32 %65 to i64
  %67 = getelementptr inbounds i8, ptr %57, i64 %66
  store ptr %67, ptr %23, align 8, !tbaa !101
  call void @llvm.lifetime.start.p0(i64 8, ptr %24) #10
  %68 = load ptr, ptr %11, align 8, !tbaa !36
  %69 = getelementptr inbounds nuw %struct.AVFrame, ptr %68, i32 0, i32 0
  %70 = load i32, ptr %21, align 4, !tbaa !32
  %71 = sext i32 %70 to i64
  %72 = getelementptr inbounds [8 x ptr], ptr %69, i64 0, i64 %71
  %73 = load ptr, ptr %72, align 8, !tbaa !96
  %74 = load i32, ptr %14, align 4, !tbaa !32
  %75 = load ptr, ptr %11, align 8, !tbaa !36
  %76 = getelementptr inbounds nuw %struct.AVFrame, ptr %75, i32 0, i32 1
  %77 = load i32, ptr %21, align 4, !tbaa !32
  %78 = sext i32 %77 to i64
  %79 = getelementptr inbounds [8 x i32], ptr %76, i64 0, i64 %78
  %80 = load i32, ptr %79, align 4, !tbaa !32
  %81 = mul nsw i32 %74, %80
  %82 = sext i32 %81 to i64
  %83 = getelementptr inbounds i8, ptr %73, i64 %82
  store ptr %83, ptr %24, align 8, !tbaa !101
  call void @llvm.lifetime.start.p0(i64 8, ptr %25) #10
  %84 = load ptr, ptr %12, align 8, !tbaa !36
  %85 = getelementptr inbounds nuw %struct.AVFrame, ptr %84, i32 0, i32 0
  %86 = load i32, ptr %21, align 4, !tbaa !32
  %87 = sext i32 %86 to i64
  %88 = getelementptr inbounds [8 x ptr], ptr %85, i64 0, i64 %87
  %89 = load ptr, ptr %88, align 8, !tbaa !96
  %90 = load i32, ptr %14, align 4, !tbaa !32
  %91 = load ptr, ptr %12, align 8, !tbaa !36
  %92 = getelementptr inbounds nuw %struct.AVFrame, ptr %91, i32 0, i32 1
  %93 = load i32, ptr %21, align 4, !tbaa !32
  %94 = sext i32 %93 to i64
  %95 = getelementptr inbounds [8 x i32], ptr %92, i64 0, i64 %94
  %96 = load i32, ptr %95, align 4, !tbaa !32
  %97 = mul nsw i32 %90, %96
  %98 = sext i32 %97 to i64
  %99 = getelementptr inbounds i8, ptr %89, i64 %98
  store ptr %99, ptr %25, align 8, !tbaa !101
  call void @llvm.lifetime.start.p0(i64 4, ptr %26) #10
  store i32 0, ptr %26, align 4, !tbaa !32
  br label %100

100:                                              ; preds = %172, %51
  %101 = load i32, ptr %26, align 4, !tbaa !32
  %102 = load i32, ptr %18, align 4, !tbaa !32
  %103 = icmp slt i32 %101, %102
  br i1 %103, label %105, label %104

104:                                              ; preds = %100
  store i32 5, ptr %22, align 4
  call void @llvm.lifetime.end.p0(i64 4, ptr %26) #10
  br label %175

105:                                              ; preds = %100
  call void @llvm.lifetime.start.p0(i64 4, ptr %27) #10
  store i32 0, ptr %27, align 4, !tbaa !32
  br label %106

106:                                              ; preds = %138, %105
  %107 = load i32, ptr %27, align 4, !tbaa !32
  %108 = load i32, ptr %19, align 4, !tbaa !32
  %109 = icmp slt i32 %107, %108
  br i1 %109, label %111, label %110

110:                                              ; preds = %106
  store i32 8, ptr %22, align 4
  call void @llvm.lifetime.end.p0(i64 4, ptr %27) #10
  br label %141

111:                                              ; preds = %106
  %112 = load i32, ptr %14, align 4, !tbaa !32
  %113 = load i32, ptr %26, align 4, !tbaa !32
  %114 = add nsw i32 %112, %113
  %115 = load i32, ptr %20, align 4, !tbaa !32
  %116 = icmp sgt i32 %114, %115
  br i1 %116, label %117, label %124

117:                                              ; preds = %111
  %118 = load ptr, ptr %24, align 8, !tbaa !101
  %119 = load i32, ptr %27, align 4, !tbaa !32
  %120 = sext i32 %119 to i64
  %121 = getelementptr inbounds i16, ptr %118, i64 %120
  %122 = load i16, ptr %121, align 2, !tbaa !84
  %123 = zext i16 %122 to i32
  br label %131

124:                                              ; preds = %111
  %125 = load ptr, ptr %23, align 8, !tbaa !101
  %126 = load i32, ptr %27, align 4, !tbaa !32
  %127 = sext i32 %126 to i64
  %128 = getelementptr inbounds i16, ptr %125, i64 %127
  %129 = load i16, ptr %128, align 2, !tbaa !84
  %130 = zext i16 %129 to i32
  br label %131

131:                                              ; preds = %124, %117
  %132 = phi i32 [ %123, %117 ], [ %130, %124 ]
  %133 = trunc i32 %132 to i16
  %134 = load ptr, ptr %25, align 8, !tbaa !101
  %135 = load i32, ptr %27, align 4, !tbaa !32
  %136 = sext i32 %135 to i64
  %137 = getelementptr inbounds i16, ptr %134, i64 %136
  store i16 %133, ptr %137, align 2, !tbaa !84
  br label %138

138:                                              ; preds = %131
  %139 = load i32, ptr %27, align 4, !tbaa !32
  %140 = add nsw i32 %139, 1
  store i32 %140, ptr %27, align 4, !tbaa !32
  br label %106, !llvm.loop !127

141:                                              ; preds = %110
  %142 = load ptr, ptr %12, align 8, !tbaa !36
  %143 = getelementptr inbounds nuw %struct.AVFrame, ptr %142, i32 0, i32 1
  %144 = load i32, ptr %21, align 4, !tbaa !32
  %145 = sext i32 %144 to i64
  %146 = getelementptr inbounds [8 x i32], ptr %143, i64 0, i64 %145
  %147 = load i32, ptr %146, align 4, !tbaa !32
  %148 = sdiv i32 %147, 2
  %149 = load ptr, ptr %25, align 8, !tbaa !101
  %150 = sext i32 %148 to i64
  %151 = getelementptr inbounds i16, ptr %149, i64 %150
  store ptr %151, ptr %25, align 8, !tbaa !101
  %152 = load ptr, ptr %10, align 8, !tbaa !36
  %153 = getelementptr inbounds nuw %struct.AVFrame, ptr %152, i32 0, i32 1
  %154 = load i32, ptr %21, align 4, !tbaa !32
  %155 = sext i32 %154 to i64
  %156 = getelementptr inbounds [8 x i32], ptr %153, i64 0, i64 %155
  %157 = load i32, ptr %156, align 4, !tbaa !32
  %158 = sdiv i32 %157, 2
  %159 = load ptr, ptr %23, align 8, !tbaa !101
  %160 = sext i32 %158 to i64
  %161 = getelementptr inbounds i16, ptr %159, i64 %160
  store ptr %161, ptr %23, align 8, !tbaa !101
  %162 = load ptr, ptr %11, align 8, !tbaa !36
  %163 = getelementptr inbounds nuw %struct.AVFrame, ptr %162, i32 0, i32 1
  %164 = load i32, ptr %21, align 4, !tbaa !32
  %165 = sext i32 %164 to i64
  %166 = getelementptr inbounds [8 x i32], ptr %163, i64 0, i64 %165
  %167 = load i32, ptr %166, align 4, !tbaa !32
  %168 = sdiv i32 %167, 2
  %169 = load ptr, ptr %24, align 8, !tbaa !101
  %170 = sext i32 %168 to i64
  %171 = getelementptr inbounds i16, ptr %169, i64 %170
  store ptr %171, ptr %24, align 8, !tbaa !101
  br label %172

172:                                              ; preds = %141
  %173 = load i32, ptr %26, align 4, !tbaa !32
  %174 = add nsw i32 %173, 1
  store i32 %174, ptr %26, align 4, !tbaa !32
  br label %100, !llvm.loop !128

175:                                              ; preds = %104
  call void @llvm.lifetime.end.p0(i64 8, ptr %25) #10
  call void @llvm.lifetime.end.p0(i64 8, ptr %24) #10
  call void @llvm.lifetime.end.p0(i64 8, ptr %23) #10
  br label %176

176:                                              ; preds = %175
  %177 = load i32, ptr %21, align 4, !tbaa !32
  %178 = add nsw i32 %177, 1
  store i32 %178, ptr %21, align 4, !tbaa !32
  br label %44, !llvm.loop !129

179:                                              ; preds = %50
  call void @llvm.lifetime.end.p0(i64 4, ptr %20) #10
  call void @llvm.lifetime.end.p0(i64 4, ptr %19) #10
  call void @llvm.lifetime.end.p0(i64 4, ptr %18) #10
  call void @llvm.lifetime.end.p0(i64 8, ptr %17) #10
  ret void
}