; Function Attrs: nofree norecurse nosync nounwind memory(readwrite, inaccessiblemem: none) uwtable
define internal void @wipeup16_transition(ptr noundef readonly captures(none) %0, ptr noundef readonly captures(none) %1, ptr noundef readonly captures(none) %2, ptr noundef readonly captures(none) %3, float noundef %4, i32 noundef %5, i32 noundef %6, i32 %7) #6 {
  %9 = getelementptr inbounds nuw i8, ptr %0, i64 72
  %10 = load ptr, ptr %9, align 8, !tbaa !4
  %11 = sub i32 %6, %5
  %12 = getelementptr inbounds nuw i8, ptr %3, i64 104
  %13 = load i32, ptr %12, align 8, !tbaa !85
  %14 = getelementptr inbounds nuw i8, ptr %3, i64 108
  %15 = load i32, ptr %14, align 4, !tbaa !88
  %16 = sitofp i32 %15 to float
  %17 = fmul nsz float %4, %16
  %18 = fptosi float %17 to i32
  %19 = getelementptr inbounds nuw i8, ptr %10, i64 40
  %20 = load i32, ptr %19, align 8, !tbaa !77
  %21 = icmp sgt i32 %20, 0
  br i1 %21, label %.lr.ph, label %._crit_edge

.lr.ph:                                           ; preds = %8
  %22 = getelementptr inbounds nuw i8, ptr %1, i64 64
  %23 = getelementptr inbounds nuw i8, ptr %2, i64 64
  %24 = getelementptr inbounds nuw i8, ptr %3, i64 64
  %25 = icmp sgt i32 %11, 0
  %26 = icmp sgt i32 %13, 0
  %or.cond = select i1 %25, i1 %26, i1 false
  br i1 %or.cond, label %.preheader.lr.ph.us.us.preheader, label %._crit_edge

.preheader.lr.ph.us.us.preheader:                 ; preds = %.lr.ph
  %wide.trip.count74 = zext nneg i32 %20 to i64
  %wide.trip.count = zext nneg i32 %13 to i64
  br label %.preheader.lr.ph.us.us

.preheader.lr.ph.us.us:                           ; preds = %.preheader.lr.ph.us.us.preheader, %._crit_edge58.split.us.us.us
  %indvars.iv71 = phi i64 [ 0, %.preheader.lr.ph.us.us.preheader ], [ %indvars.iv.next72, %._crit_edge58.split.us.us.us ]
  %27 = getelementptr inbounds nuw [8 x ptr], ptr %1, i64 0, i64 %indvars.iv71
  %28 = load ptr, ptr %27, align 8, !tbaa !89
  %29 = getelementptr inbounds nuw [8 x i32], ptr %22, i64 0, i64 %indvars.iv71
  %30 = load i32, ptr %29, align 4, !tbaa !31
  %31 = mul nsw i32 %30, %5
  %32 = sext i32 %31 to i64
  %33 = getelementptr inbounds i8, ptr %28, i64 %32
  %34 = getelementptr inbounds nuw [8 x ptr], ptr %2, i64 0, i64 %indvars.iv71
  %35 = load ptr, ptr %34, align 8, !tbaa !89
  %36 = getelementptr inbounds nuw [8 x i32], ptr %23, i64 0, i64 %indvars.iv71
  %37 = load i32, ptr %36, align 4, !tbaa !31
  %38 = mul nsw i32 %37, %5
  %39 = sext i32 %38 to i64
  %40 = getelementptr inbounds i8, ptr %35, i64 %39
  %41 = getelementptr inbounds nuw [8 x ptr], ptr %3, i64 0, i64 %indvars.iv71
  %42 = load ptr, ptr %41, align 8, !tbaa !89
  %43 = getelementptr inbounds nuw [8 x i32], ptr %24, i64 0, i64 %indvars.iv71
  %44 = load i32, ptr %43, align 4, !tbaa !31
  %45 = mul nsw i32 %44, %5
  %46 = sext i32 %45 to i64
  %47 = getelementptr inbounds i8, ptr %42, i64 %46
  %48 = sdiv i32 %44, 2
  %49 = sext i32 %48 to i64
  %50 = sdiv i32 %30, 2
  %51 = sext i32 %50 to i64
  %52 = sdiv i32 %37, 2
  %53 = sext i32 %52 to i64
  br label %.preheader.us.us.us

.preheader.us.us.us:                              ; preds = %._crit_edge.us.us.us, %.preheader.lr.ph.us.us
  %.04757.us.us.us = phi i32 [ 0, %.preheader.lr.ph.us.us ], [ %61, %._crit_edge.us.us.us ]
  %.04856.us.us.us = phi ptr [ %47, %.preheader.lr.ph.us.us ], [ %58, %._crit_edge.us.us.us ]
  %.04955.us.us.us = phi ptr [ %40, %.preheader.lr.ph.us.us ], [ %60, %._crit_edge.us.us.us ]
  %.05054.us.us.us = phi ptr [ %33, %.preheader.lr.ph.us.us ], [ %59, %._crit_edge.us.us.us ]
  %54 = add nsw i32 %.04757.us.us.us, %5
  %55 = icmp sgt i32 %54, %18
  %.in.in.v.us.us.us = select i1 %55, ptr %.04955.us.us.us, ptr %.05054.us.us.us
  br label %56

56:                                               ; preds = %56, %.preheader.us.us.us
  %indvars.iv = phi i64 [ %indvars.iv.next, %56 ], [ 0, %.preheader.us.us.us ]
  %.in.in.us.us.us = getelementptr inbounds nuw i16, ptr %.in.in.v.us.us.us, i64 %indvars.iv
  %.in52.us.us.us = load i16, ptr %.in.in.us.us.us, align 2, !tbaa !79
  %57 = getelementptr inbounds nuw i16, ptr %.04856.us.us.us, i64 %indvars.iv
  store i16 %.in52.us.us.us, ptr %57, align 2, !tbaa !79
  %indvars.iv.next = add nuw nsw i64 %indvars.iv, 1
  %exitcond.not = icmp eq i64 %indvars.iv.next, %wide.trip.count
  br i1 %exitcond.not, label %._crit_edge.us.us.us, label %56, !llvm.loop !118

._crit_edge.us.us.us:                             ; preds = %56
  %58 = getelementptr inbounds i16, ptr %.04856.us.us.us, i64 %49
  %59 = getelementptr inbounds i16, ptr %.05054.us.us.us, i64 %51
  %60 = getelementptr inbounds i16, ptr %.04955.us.us.us, i64 %53
  %61 = add nuw nsw i32 %.04757.us.us.us, 1
  %exitcond70.not = icmp eq i32 %61, %11
  br i1 %exitcond70.not, label %._crit_edge58.split.us.us.us, label %.preheader.us.us.us, !llvm.loop !119

._crit_edge58.split.us.us.us:                     ; preds = %._crit_edge.us.us.us
  %indvars.iv.next72 = add nuw nsw i64 %indvars.iv71, 1
  %exitcond75.not = icmp eq i64 %indvars.iv.next72, %wide.trip.count74
  br i1 %exitcond75.not, label %._crit_edge, label %.preheader.lr.ph.us.us, !llvm.loop !120

._crit_edge:                                      ; preds = %._crit_edge58.split.us.us.us, %.lr.ph, %8
  ret void
}